(lp0
ccollections
OrderedDict
p1
((lp2
(lp3
S'Title'
p4
a(lp5
S'adrian'
p6
aS'agents'
p7
aS'assistantship'
p8
aS'accountant'
p9
aS'accounting'
p10
aS'activism'
p11
aS'administration'
p12
aS'administrator'
p13
aS'admissions'
p14
aS'advising'
p15
aS'advisor'
p16
aS'affairs'
p17
aS'agent'
p18
aS'airport'
p19
aS'allendale'
p20
aS'analysis'
p21
aS'analyst'
p22
aS'apopka'
p23
aS'arbor'
p24
aS'architect'
p25
aS'assemblers'
p26
aS'assistant'
p27
aS'assistants'
p28
aS'associate'
p29
aS'associate20'
p30
aS'associates'
p31
aS'attendant'
p32
aS'attorney'
p33
aS'author'
p34
aS'authorizer'
p35
aS'available'
p36
aS'bartender'
p37
aS'best'
p38
aS'bonus'
p39
aS'boss'
p40
aS'banker'
p41
aS'benefits'
p42
aS'bowling'
p43
aS'builder'
p44
aS'buyer'
p45
aS'certified'
p46
aS'click'
p47
aS'call'
p48
aS'career'
p49
aS'center'
p50
aS'centers'
p51
aS'chain'
p52
aS'chairman'
p53
aS'chasing'
p54
aS'chef'
p55
aS'city'
p56
aS'clerk'
p57
aS'clermont'
p58
aS'cleveland'
p59
aS'co - op'
p60
aS'co - ordinator'
p61
aS'coach'
p62
aS'coater'
p63
aS'commons'
p64
aS'communication'
p65
aS'communications'
p66
aS'companions'
p67
aS'company'
p68
aS'construction'
p69
aS'consulant'
p70
aS'consultant'
p71
aS'consultant - erp'
p72
aS'consultant - sharepoint'
p73
aS'contractor'
p74
aS'controller'
p75
aS'coordinator'
p76
aS'counsel'
p77
aS'counselor'
p78
aS'cranston'
p79
aS'dads'
p80
aS'driver'
p81
aS'drivers'
p82
aS'decorating'
p83
aS'deland'
p84
aS'delivery'
p85
aS'deltona'
p86
aS'design'
p87
aS'designer'
p88
aS'developer'
p89
aS'development'
p90
aS'director'
p91
aS'disabilites'
p92
aS'disabilities'
p93
aS'discretion'
p94
aS'driver - '
p95
aS'electrician'
p96
aS'engineer'
p97
aS'economics'
p98
aS'editor'
p99
aS'engagement'
p100
aS'engineer - intern'
p101
aS'engineering'
p102
aS'entry'
p103
aS'entry - level'
p104
aS'equipment'
p105
aS'equipment?'
p106
aS'escort'
p107
aS'estimator'
p108
aS'examiner'
p109
aS'executive'
p110
aS'executive - commercial'
p111
aS'expeditor'
p112
aS'experience'
p113
aS'experts'
p114
aS'family'
p115
aS'finance'
p116
aS'fitter'
p117
aS'floater'
p118
aS'food'
p119
aS'foreman'
p120
aS'forever'
p121
aS'guards'
p122
aS'garden'
p123
aS'generalist'
p124
aS'here'
p125
aS'hire'
p126
aS'hiring'
p127
aS'hvac'
p128
aS'hall'
p129
aS'handler'
p130
aS'helper'
p131
aS'host'
p132
aS'hostess'
p133
aS'housekeepeer'
p134
aS'housekeeper'
p135
aS'housing'
p136
aS'immediately'
p137
aS'independence'
p138
aS'independence???'
p139
aS'installers'
p140
aS'inspector'
p141
aS'instructor'
p142
aS'intermediate'
p143
aS'intern'
p144
aS'island'
p145
aS'journalist'
p146
aS'labor'
p147
aS'lakewood'
p148
aS'landscapers'
p149
aS'lead'
p150
aS'leader'
p151
aS'lender'
p152
aS'limnologist'
p153
aS'lineman'
p154
aS'logistics'
p155
aS'longwood'
p156
aS'matter'
p157
aS'maangement'
p158
aS'machinist'
p159
aS'management'
p160
aS'manager'
p161
aS'manager - '
p162
aS'marketing'
p163
aS'mary'
p164
aS'mechanic'
p165
aS'member'
p166
aS'members'
p167
aS'mentor'
p168
aS'merchandiser'
p169
aS'millwright'
p170
aS'mixer'
p171
aS'needed'
p172
aS'night'
p173
aS'nights'
p174
aS'northside'
p175
aS'nurse'
p176
aS'only'
p177
aS'openings'
p178
aS'operators'
p179
aS'officer'
p180
aS'oper'
p181
aS'operative'
p182
aS'operatives'
p183
aS'operator'
p184
aS'opportunity'
p185
aS'outcomes'
p186
aS'oviedo'
p187
aS'philanthropy'
p188
aS'psychiatry'
p189
aS'packages'
p190
aS'paid'
p191
aS'painter'
p192
aS'paralegal'
p193
aS'park'
p194
aS'part'
p195
aS'part - time'
p196
aS'partie'
p197
aS'partner'
p198
aS'physicians'
p199
aS'picker'
p200
aS'planner'
p201
aS'positions'
p202
aS'practice'
p203
aS'practitioner'
p204
aS'processing'
p205
aS'programs'
p206
aS'projects'
p207
aS'publicist'
p208
aS'publicity'
p209
aS'publisher'
p210
aS'puller'
p211
aS'residual'
p212
aS'resort'
p213
aS'rights'
p214
aS'radiology'
p215
aS'receptionist'
p216
aS'recruitment'
p217
aS'registrar'
p218
aS'relations'
p219
aS'representative'
p220
aS'representative'
p221
aS'representatives'
p222
aS'retoucher'
p223
aS'roadhouse'
p224
aS'routes'
p225
aS'setter'
p226
aS'stylist'
p227
aS'sales'
p228
aS'scheduler'
p229
aS'scientist'
p230
aS'secretary'
p231
aS'semoran'
p232
aS'senior'
p233
aS'server'
p234
aS'shift'
p235
aS'spclst'
p236
aS'specialist'
p237
aS'staff'
p238
aS'startup'
p239
aS'states'
p240
aS'store'
p241
aS'strategist'
p242
aS'superintendent'
p243
aS'supervisor'
p244
aS'technican'
p245
aS'teacher'
p246
aS'tech'
p247
aS'technician'
p248
aS'technology'
p249
aS'techology'
p250
aS'therapist'
p251
aS'trainee'
p252
aS'trainer'
p253
aS'trio'
p254
aS'uhnw'
p255
aS'unemployed'
p256
aS'underwriter'
p257
aS'valet'
p258
aS'wanted'
p259
aS'wave'
p260
aS'washer'
p261
aS'week'
p262
aS'weekly'
p263
aS'weeklydedicatedbenefits'
p264
aS'west'
p265
aS'worker'
p266
aS'writer'
p267
aS'ypsilanti'
p268
aS'carpenter'
p269
aS'carpenter : '
p270
aS'difference'
p271
aS'hours'
p272
aS'industriel'
p273
aS'job?'
p274
aS'role'
p275
aS'today'
p276
aS'title'
p277
aS'posted date'
p278
aS'postcode'
p279
aaatp280
Rp281
ag1
((lp282
(lp283
g4
ag1
((lp284
(lp285
S'adrian'
p286
a(lp287
I1
aaa(lp288
S'agents'
p289
a(lp290
I1
aaa(lp291
S'assistantship'
p292
a(lp293
I1
aaa(lp294
S'accountant'
p295
a(lp296
I1
aaa(lp297
S'accounting'
p298
a(lp299
I1
aaa(lp300
S'activism'
p301
a(lp302
I1
aaa(lp303
S'administration'
p304
a(lp305
I1
aaa(lp306
S'administrator'
p307
a(lp308
I1
aaa(lp309
S'admissions'
p310
a(lp311
I1
aaa(lp312
S'advising'
p313
a(lp314
I1
aaa(lp315
S'advisor'
p316
a(lp317
I1
aaa(lp318
S'affairs'
p319
a(lp320
I1
aaa(lp321
S'agent'
p322
a(lp323
I1
aaa(lp324
S'airport'
p325
a(lp326
I1
aaa(lp327
S'allendale'
p328
a(lp329
I1
aaa(lp330
S'analysis'
p331
a(lp332
I1
aaa(lp333
S'analyst'
p334
a(lp335
I1
aaa(lp336
S'apopka'
p337
a(lp338
I1
aaa(lp339
S'arbor'
p340
a(lp341
I1
aaa(lp342
S'architect'
p343
a(lp344
I1
aaa(lp345
S'assemblers'
p346
a(lp347
I1
aaa(lp348
S'assistant'
p349
a(lp350
I1
aaa(lp351
S'assistants'
p352
a(lp353
I1
aaa(lp354
S'associate'
p355
a(lp356
I1
aaa(lp357
S'associate20'
p358
a(lp359
I1
aaa(lp360
S'associates'
p361
a(lp362
I1
aaa(lp363
S'attendant'
p364
a(lp365
I1
aaa(lp366
S'attorney'
p367
a(lp368
I1
aaa(lp369
S'author'
p370
a(lp371
I1
aaa(lp372
S'authorizer'
p373
a(lp374
I1
aaa(lp375
S'available'
p376
a(lp377
I1
aaa(lp378
S'bartender'
p379
a(lp380
I1
aaa(lp381
S'best'
p382
a(lp383
I1
aaa(lp384
S'bonus'
p385
a(lp386
I1
aaa(lp387
S'boss'
p388
a(lp389
I1
aaa(lp390
S'banker'
p391
a(lp392
I1
aaa(lp393
S'benefits'
p394
a(lp395
I1
aaa(lp396
S'bowling'
p397
a(lp398
I1
aaa(lp399
S'builder'
p400
a(lp401
I1
aaa(lp402
S'buyer'
p403
a(lp404
I1
aaa(lp405
S'certified'
p406
a(lp407
I1
aaa(lp408
S'click'
p409
a(lp410
I1
aaa(lp411
S'call'
p412
a(lp413
I1
aaa(lp414
S'career'
p415
a(lp416
I1
aaa(lp417
S'center'
p418
a(lp419
I1
aaa(lp420
S'centers'
p421
a(lp422
I1
aaa(lp423
S'chain'
p424
a(lp425
I1
aaa(lp426
S'chairman'
p427
a(lp428
I1
aaa(lp429
S'chasing'
p430
a(lp431
I1
aaa(lp432
S'chef'
p433
a(lp434
I1
aaa(lp435
S'city'
p436
a(lp437
I1
aaa(lp438
S'clerk'
p439
a(lp440
I1
aaa(lp441
S'clermont'
p442
a(lp443
I1
aaa(lp444
S'cleveland'
p445
a(lp446
I1
aaa(lp447
S'co'
p448
a(lp449
I3
aI3
aaa(lp450
S'coach'
p451
a(lp452
I1
aaa(lp453
S'coater'
p454
a(lp455
I1
aaa(lp456
S'commons'
p457
a(lp458
I1
aaa(lp459
S'communication'
p460
a(lp461
I1
aaa(lp462
S'communications'
p463
a(lp464
I1
aaa(lp465
S'companions'
p466
a(lp467
I1
aaa(lp468
S'company'
p469
a(lp470
I1
aaa(lp471
S'construction'
p472
a(lp473
I1
aaa(lp474
S'consulant'
p475
a(lp476
I1
aaa(lp477
S'consultant'
p478
a(lp479
I1
aI3
aI3
aaa(lp480
S'contractor'
p481
a(lp482
I1
aaa(lp483
S'controller'
p484
a(lp485
I1
aaa(lp486
S'coordinator'
p487
a(lp488
I1
aaa(lp489
S'counsel'
p490
a(lp491
I1
aaa(lp492
S'counselor'
p493
a(lp494
I1
aaa(lp495
S'cranston'
p496
a(lp497
I1
aaa(lp498
S'dads'
p499
a(lp500
I1
aaa(lp501
S'driver'
p502
a(lp503
I1
aI3
aaa(lp504
S'drivers'
p505
a(lp506
I1
aaa(lp507
S'decorating'
p508
a(lp509
I1
aaa(lp510
S'deland'
p511
a(lp512
I1
aaa(lp513
S'delivery'
p514
a(lp515
I1
aaa(lp516
S'deltona'
p517
a(lp518
I1
aaa(lp519
S'design'
p520
a(lp521
I1
aaa(lp522
S'designer'
p523
a(lp524
I1
aaa(lp525
S'developer'
p526
a(lp527
I1
aaa(lp528
S'development'
p529
a(lp530
I1
aaa(lp531
S'director'
p532
a(lp533
I1
aaa(lp534
S'disabilites'
p535
a(lp536
I1
aaa(lp537
S'disabilities'
p538
a(lp539
I1
aaa(lp540
S'discretion'
p541
a(lp542
I1
aaa(lp543
S'electrician'
p544
a(lp545
I1
aaa(lp546
S'engineer'
p547
a(lp548
I1
aI3
aaa(lp549
S'economics'
p550
a(lp551
I1
aaa(lp552
S'editor'
p553
a(lp554
I1
aaa(lp555
S'engagement'
p556
a(lp557
I1
aaa(lp558
S'engineering'
p559
a(lp560
I1
aaa(lp561
S'entry'
p562
a(lp563
I1
aI3
aaa(lp564
S'equipment'
p565
a(lp566
I1
aaa(lp567
S'equipment?'
p568
a(lp569
I1
aaa(lp570
S'escort'
p571
a(lp572
I1
aaa(lp573
S'estimator'
p574
a(lp575
I1
aaa(lp576
S'examiner'
p577
a(lp578
I1
aaa(lp579
S'executive'
p580
a(lp581
I1
aI3
aaa(lp582
S'expeditor'
p583
a(lp584
I1
aaa(lp585
S'experience'
p586
a(lp587
I1
aaa(lp588
S'experts'
p589
a(lp590
I1
aaa(lp591
S'family'
p592
a(lp593
I1
aaa(lp594
S'finance'
p595
a(lp596
I1
aaa(lp597
S'fitter'
p598
a(lp599
I1
aaa(lp600
S'floater'
p601
a(lp602
I1
aaa(lp603
S'food'
p604
a(lp605
I1
aaa(lp606
S'foreman'
p607
a(lp608
I1
aaa(lp609
S'forever'
p610
a(lp611
I1
aaa(lp612
S'guards'
p613
a(lp614
I1
aaa(lp615
S'garden'
p616
a(lp617
I1
aaa(lp618
S'generalist'
p619
a(lp620
I1
aaa(lp621
S'here'
p622
a(lp623
I1
aaa(lp624
S'hire'
p625
a(lp626
I1
aaa(lp627
S'hiring'
p628
a(lp629
I1
aaa(lp630
S'hvac'
p631
a(lp632
I1
aaa(lp633
S'hall'
p634
a(lp635
I1
aaa(lp636
S'handler'
p637
a(lp638
I1
aaa(lp639
S'helper'
p640
a(lp641
I1
aaa(lp642
S'host'
p643
a(lp644
I1
aaa(lp645
S'hostess'
p646
a(lp647
I1
aaa(lp648
S'housekeepeer'
p649
a(lp650
I1
aaa(lp651
S'housekeeper'
p652
a(lp653
I1
aaa(lp654
S'housing'
p655
a(lp656
I1
aaa(lp657
S'immediately'
p658
a(lp659
I1
aaa(lp660
S'independence'
p661
a(lp662
I1
aaa(lp663
S'independence???'
p664
a(lp665
I1
aaa(lp666
S'installers'
p667
a(lp668
I1
aaa(lp669
S'inspector'
p670
a(lp671
I1
aaa(lp672
S'instructor'
p673
a(lp674
I1
aaa(lp675
S'intermediate'
p676
a(lp677
I1
aaa(lp678
S'intern'
p679
a(lp680
I1
aaa(lp681
S'island'
p682
a(lp683
I1
aaa(lp684
S'journalist'
p685
a(lp686
I1
aaa(lp687
S'labor'
p688
a(lp689
I1
aaa(lp690
S'lakewood'
p691
a(lp692
I1
aaa(lp693
S'landscapers'
p694
a(lp695
I1
aaa(lp696
S'lead'
p697
a(lp698
I1
aaa(lp699
S'leader'
p700
a(lp701
I1
aaa(lp702
S'lender'
p703
a(lp704
I1
aaa(lp705
S'limnologist'
p706
a(lp707
I1
aaa(lp708
S'lineman'
p709
a(lp710
I1
aaa(lp711
S'logistics'
p712
a(lp713
I1
aaa(lp714
S'longwood'
p715
a(lp716
I1
aaa(lp717
S'matter'
p718
a(lp719
I1
aaa(lp720
S'maangement'
p721
a(lp722
I1
aaa(lp723
S'machinist'
p724
a(lp725
I1
aaa(lp726
S'management'
p727
a(lp728
I1
aaa(lp729
S'manager'
p730
a(lp731
I1
aI3
aaa(lp732
S'marketing'
p733
a(lp734
I1
aaa(lp735
S'mary'
p736
a(lp737
I1
aaa(lp738
S'mechanic'
p739
a(lp740
I1
aaa(lp741
S'member'
p742
a(lp743
I1
aaa(lp744
S'members'
p745
a(lp746
I1
aaa(lp747
S'mentor'
p748
a(lp749
I1
aaa(lp750
S'merchandiser'
p751
a(lp752
I1
aaa(lp753
S'millwright'
p754
a(lp755
I1
aaa(lp756
S'mixer'
p757
a(lp758
I1
aaa(lp759
S'needed'
p760
a(lp761
I1
aaa(lp762
S'night'
p763
a(lp764
I1
aaa(lp765
S'nights'
p766
a(lp767
I1
aaa(lp768
S'northside'
p769
a(lp770
I1
aaa(lp771
S'nurse'
p772
a(lp773
I1
aaa(lp774
S'only'
p775
a(lp776
I1
aaa(lp777
S'openings'
p778
a(lp779
I1
aaa(lp780
S'operators'
p781
a(lp782
I1
aaa(lp783
S'officer'
p784
a(lp785
I1
aaa(lp786
S'oper'
p787
a(lp788
I1
aaa(lp789
S'operative'
p790
a(lp791
I1
aaa(lp792
S'operatives'
p793
a(lp794
I1
aaa(lp795
S'operator'
p796
a(lp797
I1
aaa(lp798
S'opportunity'
p799
a(lp800
I1
aaa(lp801
S'outcomes'
p802
a(lp803
I1
aaa(lp804
S'oviedo'
p805
a(lp806
I1
aaa(lp807
S'philanthropy'
p808
a(lp809
I1
aaa(lp810
S'psychiatry'
p811
a(lp812
I1
aaa(lp813
S'packages'
p814
a(lp815
I1
aaa(lp816
S'paid'
p817
a(lp818
I1
aaa(lp819
S'painter'
p820
a(lp821
I1
aaa(lp822
S'paralegal'
p823
a(lp824
I1
aaa(lp825
S'park'
p826
a(lp827
I1
aaa(lp828
S'part'
p829
a(lp830
I1
aI3
aaa(lp831
S'partie'
p832
a(lp833
I1
aaa(lp834
S'partner'
p835
a(lp836
I1
aaa(lp837
S'physicians'
p838
a(lp839
I1
aaa(lp840
S'picker'
p841
a(lp842
I1
aaa(lp843
S'planner'
p844
a(lp845
I1
aaa(lp846
S'positions'
p847
a(lp848
I1
aaa(lp849
S'practice'
p850
a(lp851
I1
aaa(lp852
S'practitioner'
p853
a(lp854
I1
aaa(lp855
S'processing'
p856
a(lp857
I1
aaa(lp858
S'programs'
p859
a(lp860
I1
aaa(lp861
S'projects'
p862
a(lp863
I1
aaa(lp864
S'publicist'
p865
a(lp866
I1
aaa(lp867
S'publicity'
p868
a(lp869
I1
aaa(lp870
S'publisher'
p871
a(lp872
I1
aaa(lp873
S'puller'
p874
a(lp875
I1
aaa(lp876
S'residual'
p877
a(lp878
I1
aaa(lp879
S'resort'
p880
a(lp881
I1
aaa(lp882
S'rights'
p883
a(lp884
I1
aaa(lp885
S'radiology'
p886
a(lp887
I1
aaa(lp888
S'receptionist'
p889
a(lp890
I1
aaa(lp891
S'recruitment'
p892
a(lp893
I1
aaa(lp894
S'registrar'
p895
a(lp896
I1
aaa(lp897
S'relations'
p898
a(lp899
I1
aaa(lp900
S'representative'
p901
a(lp902
I1
aI1
aaa(lp903
S'representatives'
p904
a(lp905
I1
aaa(lp906
S'retoucher'
p907
a(lp908
I1
aaa(lp909
S'roadhouse'
p910
a(lp911
I1
aaa(lp912
S'routes'
p913
a(lp914
I1
aaa(lp915
S'setter'
p916
a(lp917
I1
aaa(lp918
S'stylist'
p919
a(lp920
I1
aaa(lp921
S'sales'
p922
a(lp923
I1
aaa(lp924
S'scheduler'
p925
a(lp926
I1
aaa(lp927
S'scientist'
p928
a(lp929
I1
aaa(lp930
S'secretary'
p931
a(lp932
I1
aaa(lp933
S'semoran'
p934
a(lp935
I1
aaa(lp936
S'senior'
p937
a(lp938
I1
aaa(lp939
S'server'
p940
a(lp941
I1
aaa(lp942
S'shift'
p943
a(lp944
I1
aaa(lp945
S'spclst'
p946
a(lp947
I1
aaa(lp948
S'specialist'
p949
a(lp950
I1
aaa(lp951
S'staff'
p952
a(lp953
I1
aaa(lp954
S'startup'
p955
a(lp956
I1
aaa(lp957
S'states'
p958
a(lp959
I1
aaa(lp960
S'store'
p961
a(lp962
I1
aaa(lp963
S'strategist'
p964
a(lp965
I1
aaa(lp966
S'superintendent'
p967
a(lp968
I1
aaa(lp969
S'supervisor'
p970
a(lp971
I1
aaa(lp972
S'technican'
p973
a(lp974
I1
aaa(lp975
S'teacher'
p976
a(lp977
I1
aaa(lp978
S'tech'
p979
a(lp980
I1
aaa(lp981
S'technician'
p982
a(lp983
I1
aaa(lp984
S'technology'
p985
a(lp986
I1
aaa(lp987
S'techology'
p988
a(lp989
I1
aaa(lp990
S'therapist'
p991
a(lp992
I1
aaa(lp993
S'trainee'
p994
a(lp995
I1
aaa(lp996
S'trainer'
p997
a(lp998
I1
aaa(lp999
S'trio'
p1000
a(lp1001
I1
aaa(lp1002
S'uhnw'
p1003
a(lp1004
I1
aaa(lp1005
S'unemployed'
p1006
a(lp1007
I1
aaa(lp1008
S'underwriter'
p1009
a(lp1010
I1
aaa(lp1011
S'valet'
p1012
a(lp1013
I1
aaa(lp1014
S'wanted'
p1015
a(lp1016
I1
aaa(lp1017
S'wave'
p1018
a(lp1019
I1
aaa(lp1020
S'washer'
p1021
a(lp1022
I1
aaa(lp1023
S'week'
p1024
a(lp1025
I1
aaa(lp1026
S'weekly'
p1027
a(lp1028
I1
aaa(lp1029
S'weeklydedicatedbenefits'
p1030
a(lp1031
I1
aaa(lp1032
S'west'
p1033
a(lp1034
I1
aaa(lp1035
S'worker'
p1036
a(lp1037
I1
aaa(lp1038
S'writer'
p1039
a(lp1040
I1
aaa(lp1041
S'ypsilanti'
p1042
a(lp1043
I1
aaa(lp1044
S'carpenter'
p1045
a(lp1046
I1
aI3
aaa(lp1047
S'difference'
p1048
a(lp1049
I1
aaa(lp1050
S'hours'
p1051
a(lp1052
I1
aaa(lp1053
S'industriel'
p1054
a(lp1055
I1
aaa(lp1056
S'job?'
p1057
a(lp1058
I1
aaa(lp1059
S'role'
p1060
a(lp1061
I1
aaa(lp1062
S'today'
p1063
a(lp1064
I1
aaa(lp1065
S'title'
p1066
a(lp1067
I1
aaa(lp1068
S'posted'
p1069
a(lp1070
I2
aaa(lp1071
S'postcode'
p1072
a(lp1073
I1
aaatp1074
Rp1075
aatp1076
Rp1077
a.